; Function Attrs: inlinehint mustprogress optsize uwtable
define internal noundef nonnull ptr @"_ZZN8nanobind6detail11func_createILb0ELb1EZL27nanobind_init_test_eval_extRNS_7module_EE3$_5bJETpTnmJEJNS_5scopeENS_4nameEEEEP7_objectOT1_PFT2_DpT3_ESt16integer_sequenceImJXspT4_EEEDpRKT5_ENUlPvPS8_PhNS_9rv_policyEPNS0_12cleanup_listEE_8__invokeESM_SN_SO_SP_SR_"(ptr readnone captures(none) %0, ptr readnone captures(none) %1, ptr readnone captures(none) %2, i32 %3, ptr readnone captures(none) %4) #9 align 2 personality ptr @__gxx_personality_v0 {
  %6 = alloca %"class.nanobind::dict", align 8
  call void @llvm.lifetime.start.p0(i64 8, ptr nonnull %6) #13
  tail call void @llvm.experimental.noalias.scope.decl(metadata !145)
  %7 = tail call ptr @PyEval_GetGlobals() #12, !noalias !145
  %.not.i.i = icmp eq ptr %7, null
  br i1 %.not.i.i, label %8, label %_ZN8nanobind7globalsEv.exit.i

8:                                                ; preds = %5
  tail call void (ptr, ...) @_ZN8nanobind6detail5raiseEPKcz(ptr noundef nonnull @.str.22) #16, !noalias !145
  unreachable

_ZN8nanobind7globalsEv.exit.i:                    ; preds = %5
  store ptr %7, ptr %6, align 8, !alias.scope !145
  %9 = load i64, ptr %7, align 8, !tbaa !18, !noalias !145
  %10 = add nsw i64 %9, 1
  store i64 %10, ptr %7, align 8, !tbaa !18, !noalias !145
  %11 = invoke noundef zeroext i1 @_ZNK8nanobind4dict8containsIRA2_KcEEbOT_(ptr noundef nonnull align 8 dereferenceable(8) %6, ptr noundef nonnull align 1 dereferenceable(2) @.str.21) #12
          to label %"_ZZL27nanobind_init_test_eval_extRN8nanobind7module_EENK3$_5clEv.exit" unwind label %12

12:                                               ; preds = %_ZN8nanobind7globalsEv.exit.i
  %13 = landingpad { ptr, i32 }
          cleanup
  %14 = call noundef nonnull align 8 dereferenceable(8) ptr @_ZNKR8nanobind6handle7dec_refEv(ptr noundef nonnull align 8 dereferenceable(8) %6) #14
  call void @llvm.lifetime.end.p0(i64 8, ptr nonnull %6) #13
  resume { ptr, i32 } %13

"_ZZL27nanobind_init_test_eval_extRN8nanobind7module_EENK3$_5clEv.exit": ; preds = %_ZN8nanobind7globalsEv.exit.i
  %15 = call noundef nonnull align 8 dereferenceable(8) ptr @_ZNKR8nanobind6handle7dec_refEv(ptr noundef nonnull align 8 dereferenceable(8) %6) #14
  call void @llvm.lifetime.end.p0(i64 8, ptr nonnull %6) #13
  %16 = select i1 %11, ptr @_Py_TrueStruct, ptr @_Py_FalseStruct
  %17 = load i64, ptr %16, align 8, !tbaa !18
  %18 = add nsw i64 %17, 1
  store i64 %18, ptr %16, align 8, !tbaa !18
  ret ptr %16
}